target datalayout = "e-m:e-p270:32:32-p271:32:32-p272:64:64-i64:64-i128:128-f80:128-n8:16:32:64-S128"
target triple = "x86_64-pc-linux-gnu"

; Function Attrs: nounwind uwtable
define void @invert_sqrt_vec(i32 noundef %0, ptr noundef %1) #0 {
  %3 = alloca i32, align 4
  %4 = alloca ptr, align 8
  %5 = alloca i32, align 4
  store i32 %0, ptr %3, align 4, !tbaa !8
  store ptr %1, ptr %4, align 8, !tbaa !40
  call void @llvm.lifetime.start.p0(i64 4, ptr %5) #8
  store i32 0, ptr %5, align 4, !tbaa !8
  br label %6

6:                                                ; preds = %31, %2
  %7 = load i32, ptr %5, align 4, !tbaa !8
  %8 = load i32, ptr %3, align 4, !tbaa !8
  %9 = icmp slt i32 %7, %8
  br i1 %9, label %10, label %34

10:                                               ; preds = %6
  %11 = load ptr, ptr %4, align 8, !tbaa !40
  %12 = load i32, ptr %5, align 4, !tbaa !8
  %13 = sext i32 %12 to i64
  %14 = getelementptr inbounds float, ptr %11, i64 %13
  %15 = load float, ptr %14, align 4, !tbaa !43
  %16 = fpext float %15 to double
  %17 = fcmp ogt double %16, 0.000000e+00
  br i1 %17, label %18, label %30

18:                                               ; preds = %10
  %19 = load ptr, ptr %4, align 8, !tbaa !40
  %20 = load i32, ptr %5, align 4, !tbaa !8
  %21 = sext i32 %20 to i64
  %22 = getelementptr inbounds float, ptr %19, i64 %21
  %23 = load float, ptr %22, align 4, !tbaa !43
  %24 = call float @sqrtf(float noundef %23) #8, !tbaa !8
  %25 = fdiv float 1.000000e+00, %24
  %26 = load ptr, ptr %4, align 8, !tbaa !40
  %27 = load i32, ptr %5, align 4, !tbaa !8
  %28 = sext i32 %27 to i64
  %29 = getelementptr inbounds float, ptr %26, i64 %28
  store float %25, ptr %29, align 4, !tbaa !43
  br label %30

30:                                               ; preds = %18, %10
  br label %31

31:                                               ; preds = %30
  %32 = load i32, ptr %5, align 4, !tbaa !8
  %33 = add nsw i32 %32, 1
  store i32 %33, ptr %5, align 4, !tbaa !8
  br label %6, !llvm.loop !92

34:                                               ; preds = %6
  call void @llvm.lifetime.end.p0(i64 4, ptr %5) #8
  ret void
}